target datalayout = "e-m:e-p270:32:32-p271:32:32-p272:64:64-i64:64-i128:128-f80:128-n8:16:32:64-S128"
target triple = "x86_64-pc-linux-gnu"

%class.JVMCICompileState = type { ptr, ptr, i64, i8, i8, i8, i8, i8, i8, ptr, i8, i32 }

; Function Attrs: mustprogress nounwind uwtable
define hidden void @_ZN17JVMCICompileState11set_failureEbPKcb(ptr noundef nonnull align 8 dereferenceable(48) %0, i1 noundef zeroext %1, ptr noundef %2, i1 noundef zeroext %3) #1 align 2 {
  %5 = alloca ptr, align 8
  %6 = alloca i8, align 1
  %7 = alloca ptr, align 8
  %8 = alloca i8, align 1
  store ptr %0, ptr %5, align 8
  %9 = zext i1 %1 to i8
  store i8 %9, ptr %6, align 1
  store ptr %2, ptr %7, align 8
  %10 = zext i1 %3 to i8
  store i8 %10, ptr %8, align 1
  %11 = load ptr, ptr %5, align 8
  %12 = getelementptr inbounds %class.JVMCICompileState, ptr %11, i32 0, i32 9
  %13 = load ptr, ptr %12, align 8
  %14 = icmp ne ptr %13, null
  br i1 %14, label %15, label %22

15:                                               ; preds = %4
  %16 = getelementptr inbounds %class.JVMCICompileState, ptr %11, i32 0, i32 10
  %17 = load i8, ptr %16, align 8
  %18 = trunc i8 %17 to i1
  br i1 %18, label %19, label %22

19:                                               ; preds = %15
  %20 = getelementptr inbounds %class.JVMCICompileState, ptr %11, i32 0, i32 9
  %21 = load ptr, ptr %20, align 8
  call void @_ZN2os4freeEPv(ptr noundef %21)
  br label %22

22:                                               ; preds = %19, %15, %4
  %23 = load ptr, ptr %7, align 8
  %24 = getelementptr inbounds %class.JVMCICompileState, ptr %11, i32 0, i32 9
  store ptr %23, ptr %24, align 8
  %25 = load i8, ptr %8, align 1
  %26 = trunc i8 %25 to i1
  %27 = getelementptr inbounds %class.JVMCICompileState, ptr %11, i32 0, i32 10
  %28 = zext i1 %26 to i8
  store i8 %28, ptr %27, align 8
  %29 = load i8, ptr %6, align 1
  %30 = trunc i8 %29 to i1
  %31 = getelementptr inbounds %class.JVMCICompileState, ptr %11, i32 0, i32 8
  %32 = zext i1 %30 to i8
  store i8 %32, ptr %31, align 1
  ret void
}