; Function Attrs: mustprogress nounwind uwtable
define hidden void @_ZN17JVMCICompileState11set_failureEbPKcb(ptr nocapture noundef nonnull align 8 dereferenceable(48) %0, i1 noundef zeroext %1, ptr noundef %2, i1 noundef zeroext %3) local_unnamed_addr #0 align 2 {
  %5 = getelementptr inbounds i8, ptr %0, i64 32
  %6 = load ptr, ptr %5, align 8
  %.not = icmp eq ptr %6, null
  br i1 %.not, label %12, label %7

7:                                                ; preds = %4
  %8 = getelementptr inbounds i8, ptr %0, i64 40
  %9 = load i8, ptr %8, align 8
  %10 = trunc i8 %9 to i1
  br i1 %10, label %11, label %12

11:                                               ; preds = %7
  tail call void @_ZN2os4freeEPv(ptr noundef nonnull %6) #14
  br label %12

12:                                               ; preds = %11, %7, %4
  %13 = zext i1 %3 to i8
  %14 = zext i1 %1 to i8
  store ptr %2, ptr %5, align 8
  %15 = getelementptr inbounds i8, ptr %0, i64 40
  store i8 %13, ptr %15, align 8
  %16 = getelementptr inbounds i8, ptr %0, i64 29
  store i8 %14, ptr %16, align 1
  ret void
}